target datalayout = "e-m:e-p270:32:32-p271:32:32-p272:64:64-i64:64-i128:128-f80:128-n8:16:32:64-S128"
target triple = "x86_64-pc-linux-gnu"

%struct.squeue_parameters = type { i8, i8, i8, i8, i8, i8, i32, i8, i8, i8, i8, i8, i8, i8, i8, i8, i8, i32, ptr, ptr, i32, ptr, ptr, ptr, ptr, ptr, ptr, ptr, ptr, i8, ptr, ptr, ptr, ptr, ptr, ptr, ptr, ptr, i32, i32, i32, ptr, ptr, ptr, ptr, ptr, ptr, ptr, ptr, ptr, ptr }

@now = internal global i64 0, align 8
@params = external global %struct.squeue_parameters, align 8
@reverse_order = internal global i8 0, align 1
@.str.1 = private unnamed_addr constant [8 x i8] c"cluster\00", align 1
@.str.2 = private unnamed_addr constant [30 x i8] c"Invalid sort specification: b\00", align 1
@.str.4 = private unnamed_addr constant [4 x i8] c"P,i\00", align 1

; Function Attrs: nounwind uwtable
define dso_local void @sort_step_list(ptr noundef %0) #0 {
  %2 = alloca ptr, align 8
  %3 = alloca i32, align 4
  store ptr %0, ptr %2, align 8
  call void @llvm.lifetime.start.p0(i64 4, ptr %3) #8
  %4 = call i64 @time(ptr noundef null) #8
  store i64 %4, ptr @now, align 8
  %5 = load ptr, ptr getelementptr inbounds nuw (%struct.squeue_parameters, ptr @params, i32 0, i32 34), align 8
  %6 = icmp eq ptr %5, null
  br i1 %6, label %7, label %9

7:                                                ; preds = %1
  %8 = call ptr @xstrdup(ptr noundef @.str.4)
  store ptr %8, ptr getelementptr inbounds nuw (%struct.squeue_parameters, ptr @params, i32 0, i32 34), align 8
  br label %9

9:                                                ; preds = %7, %1
  %10 = load ptr, ptr getelementptr inbounds nuw (%struct.squeue_parameters, ptr @params, i32 0, i32 34), align 8
  %11 = call i64 @strlen(ptr noundef %10) #9
  %12 = sub i64 %11, 1
  %13 = trunc i64 %12 to i32
  store i32 %13, ptr %3, align 4
  br label %14

14:                                               ; preds = %194, %9
  %15 = load i32, ptr %3, align 4
  %16 = icmp sge i32 %15, 0
  br i1 %16, label %17, label %197

17:                                               ; preds = %14
  store i8 0, ptr @reverse_order, align 1
  %18 = load ptr, ptr getelementptr inbounds nuw (%struct.squeue_parameters, ptr @params, i32 0, i32 34), align 8
  %19 = load i32, ptr %3, align 4
  %20 = sext i32 %19 to i64
  %21 = getelementptr inbounds i8, ptr %18, i64 %20
  %22 = load i8, ptr %21, align 1
  %23 = sext i8 %22 to i32
  %24 = icmp eq i32 %23, 44
  br i1 %24, label %41, label %25

25:                                               ; preds = %17
  %26 = load ptr, ptr getelementptr inbounds nuw (%struct.squeue_parameters, ptr @params, i32 0, i32 34), align 8
  %27 = load i32, ptr %3, align 4
  %28 = sext i32 %27 to i64
  %29 = getelementptr inbounds i8, ptr %26, i64 %28
  %30 = load i8, ptr %29, align 1
  %31 = sext i8 %30 to i32
  %32 = icmp eq i32 %31, 43
  br i1 %32, label %41, label %33

33:                                               ; preds = %25
  %34 = load ptr, ptr getelementptr inbounds nuw (%struct.squeue_parameters, ptr @params, i32 0, i32 34), align 8
  %35 = load i32, ptr %3, align 4
  %36 = sext i32 %35 to i64
  %37 = getelementptr inbounds i8, ptr %34, i64 %36
  %38 = load i8, ptr %37, align 1
  %39 = sext i8 %38 to i32
  %40 = icmp eq i32 %39, 45
  br i1 %40, label %41, label %42

41:                                               ; preds = %33, %25, %17
  br label %194

42:                                               ; preds = %33
  %43 = load i32, ptr %3, align 4
  %44 = icmp sgt i32 %43, 0
  br i1 %44, label %45, label %55

45:                                               ; preds = %42
  %46 = load ptr, ptr getelementptr inbounds nuw (%struct.squeue_parameters, ptr @params, i32 0, i32 34), align 8
  %47 = load i32, ptr %3, align 4
  %48 = sub nsw i32 %47, 1
  %49 = sext i32 %48 to i64
  %50 = getelementptr inbounds i8, ptr %46, i64 %49
  %51 = load i8, ptr %50, align 1
  %52 = sext i8 %51 to i32
  %53 = icmp eq i32 %52, 45
  br i1 %53, label %54, label %55

54:                                               ; preds = %45
  store i8 1, ptr @reverse_order, align 1
  br label %55

55:                                               ; preds = %54, %45, %42
  %56 = load i32, ptr %3, align 4
  %57 = add nsw i32 %56, 1
  %58 = icmp sle i32 7, %57
  br i1 %58, label %59, label %85

59:                                               ; preds = %55
  %60 = load ptr, ptr getelementptr inbounds nuw (%struct.squeue_parameters, ptr @params, i32 0, i32 34), align 8
  %61 = load i32, ptr %3, align 4
  %62 = sub nsw i32 %61, 7
  %63 = add nsw i32 %62, 1
  %64 = sext i32 %63 to i64
  %65 = getelementptr inbounds i8, ptr %60, i64 %64
  %66 = call i32 @xstrncasecmp(ptr noundef %65, ptr noundef @.str.1, i64 noundef 7)
  %67 = icmp ne i32 %66, 0
  br i1 %67, label %85, label %68

68:                                               ; preds = %59
  %69 = load i32, ptr %3, align 4
  %70 = icmp sle i32 7, %69
  br i1 %70, label %71, label %81

71:                                               ; preds = %68
  %72 = load ptr, ptr getelementptr inbounds nuw (%struct.squeue_parameters, ptr @params, i32 0, i32 34), align 8
  %73 = load i32, ptr %3, align 4
  %74 = sub nsw i32 %73, 7
  %75 = sext i32 %74 to i64
  %76 = getelementptr inbounds i8, ptr %72, i64 %75
  %77 = load i8, ptr %76, align 1
  %78 = sext i8 %77 to i32
  %79 = icmp eq i32 %78, 45
  br i1 %79, label %80, label %81

80:                                               ; preds = %71
  store i8 1, ptr @reverse_order, align 1
  br label %81

81:                                               ; preds = %80, %71, %68
  %82 = load ptr, ptr %2, align 8
  call void @list_sort(ptr noundef %82, ptr noundef @_sort_step_by_cluster_name)
  %83 = load i32, ptr %3, align 4
  %84 = sub nsw i32 %83, 6
  store i32 %84, ptr %3, align 4
  br label %193

85:                                               ; preds = %59, %55
  %86 = load ptr, ptr getelementptr inbounds nuw (%struct.squeue_parameters, ptr @params, i32 0, i32 34), align 8
  %87 = load i32, ptr %3, align 4
  %88 = sext i32 %87 to i64
  %89 = getelementptr inbounds i8, ptr %86, i64 %88
  %90 = load i8, ptr %89, align 1
  %91 = sext i8 %90 to i32
  %92 = icmp eq i32 %91, 98
  br i1 %92, label %93, label %104

93:                                               ; preds = %85
  br label %94

94:                                               ; preds = %93
  br label %95

95:                                               ; preds = %94
  %96 = call i32 @get_log_level()
  %97 = icmp sge i32 %96, 3
  br i1 %97, label %98, label %99

98:                                               ; preds = %95
  call void (i32, ptr, ...) @log_var(i32 noundef 3, ptr noundef @.str.2)
  br label %99

99:                                               ; preds = %98, %95
  br label %100

100:                                              ; preds = %99
  br label %101

101:                                              ; preds = %100
  br label %102

102:                                              ; preds = %101
  br label %103

103:                                              ; preds = %102
  br label %192

104:                                              ; preds = %85
  %105 = load ptr, ptr getelementptr inbounds nuw (%struct.squeue_parameters, ptr @params, i32 0, i32 34), align 8
  %106 = load i32, ptr %3, align 4
  %107 = sext i32 %106 to i64
  %108 = getelementptr inbounds i8, ptr %105, i64 %107
  %109 = load i8, ptr %108, align 1
  %110 = sext i8 %109 to i32
  %111 = icmp eq i32 %110, 105
  br i1 %111, label %112, label %114

112:                                              ; preds = %104
  %113 = load ptr, ptr %2, align 8
  call void @list_sort(ptr noundef %113, ptr noundef @_sort_step_by_id)
  br label %191

114:                                              ; preds = %104
  %115 = load ptr, ptr getelementptr inbounds nuw (%struct.squeue_parameters, ptr @params, i32 0, i32 34), align 8
  %116 = load i32, ptr %3, align 4
  %117 = sext i32 %116 to i64
  %118 = getelementptr inbounds i8, ptr %115, i64 %117
  %119 = load i8, ptr %118, align 1
  %120 = sext i8 %119 to i32
  %121 = icmp eq i32 %120, 78
  br i1 %121, label %122, label %124

122:                                              ; preds = %114
  %123 = load ptr, ptr %2, align 8
  call void @list_sort(ptr noundef %123, ptr noundef @_sort_step_by_node_list)
  br label %190

124:                                              ; preds = %114
  %125 = load ptr, ptr getelementptr inbounds nuw (%struct.squeue_parameters, ptr @params, i32 0, i32 34), align 8
  %126 = load i32, ptr %3, align 4
  %127 = sext i32 %126 to i64
  %128 = getelementptr inbounds i8, ptr %125, i64 %127
  %129 = load i8, ptr %128, align 1
  %130 = sext i8 %129 to i32
  %131 = icmp eq i32 %130, 80
  br i1 %131, label %132, label %134

132:                                              ; preds = %124
  %133 = load ptr, ptr %2, align 8
  call void @list_sort(ptr noundef %133, ptr noundef @_sort_step_by_partition)
  br label %189

134:                                              ; preds = %124
  %135 = load ptr, ptr getelementptr inbounds nuw (%struct.squeue_parameters, ptr @params, i32 0, i32 34), align 8
  %136 = load i32, ptr %3, align 4
  %137 = sext i32 %136 to i64
  %138 = getelementptr inbounds i8, ptr %135, i64 %137
  %139 = load i8, ptr %138, align 1
  %140 = sext i8 %139 to i32
  %141 = icmp eq i32 %140, 108
  br i1 %141, label %142, label %144

142:                                              ; preds = %134
  %143 = load ptr, ptr %2, align 8
  call void @list_sort(ptr noundef %143, ptr noundef @_sort_step_by_time_limit)
  br label %188

144:                                              ; preds = %134
  %145 = load ptr, ptr getelementptr inbounds nuw (%struct.squeue_parameters, ptr @params, i32 0, i32 34), align 8
  %146 = load i32, ptr %3, align 4
  %147 = sext i32 %146 to i64
  %148 = getelementptr inbounds i8, ptr %145, i64 %147
  %149 = load i8, ptr %148, align 1
  %150 = sext i8 %149 to i32
  %151 = icmp eq i32 %150, 83
  br i1 %151, label %152, label %154

152:                                              ; preds = %144
  %153 = load ptr, ptr %2, align 8
  call void @list_sort(ptr noundef %153, ptr noundef @_sort_step_by_time_start)
  br label %187

154:                                              ; preds = %144
  %155 = load ptr, ptr getelementptr inbounds nuw (%struct.squeue_parameters, ptr @params, i32 0, i32 34), align 8
  %156 = load i32, ptr %3, align 4
  %157 = sext i32 %156 to i64
  %158 = getelementptr inbounds i8, ptr %155, i64 %157
  %159 = load i8, ptr %158, align 1
  %160 = sext i8 %159 to i32
  %161 = icmp eq i32 %160, 77
  br i1 %161, label %162, label %164

162:                                              ; preds = %154
  %163 = load ptr, ptr %2, align 8
  call void @list_sort(ptr noundef %163, ptr noundef @_sort_step_by_time_used)
  br label %186

164:                                              ; preds = %154
  %165 = load ptr, ptr getelementptr inbounds nuw (%struct.squeue_parameters, ptr @params, i32 0, i32 34), align 8
  %166 = load i32, ptr %3, align 4
  %167 = sext i32 %166 to i64
  %168 = getelementptr inbounds i8, ptr %165, i64 %167
  %169 = load i8, ptr %168, align 1
  %170 = sext i8 %169 to i32
  %171 = icmp eq i32 %170, 117
  br i1 %171, label %172, label %174

172:                                              ; preds = %164
  %173 = load ptr, ptr %2, align 8
  call void @list_sort(ptr noundef %173, ptr noundef @_sort_step_by_user_name)
  br label %185

174:                                              ; preds = %164
  %175 = load ptr, ptr getelementptr inbounds nuw (%struct.squeue_parameters, ptr @params, i32 0, i32 34), align 8
  %176 = load i32, ptr %3, align 4
  %177 = sext i32 %176 to i64
  %178 = getelementptr inbounds i8, ptr %175, i64 %177
  %179 = load i8, ptr %178, align 1
  %180 = sext i8 %179 to i32
  %181 = icmp eq i32 %180, 85
  br i1 %181, label %182, label %184

182:                                              ; preds = %174
  %183 = load ptr, ptr %2, align 8
  call void @list_sort(ptr noundef %183, ptr noundef @_sort_step_by_user_id)
  br label %184

184:                                              ; preds = %182, %174
  br label %185

185:                                              ; preds = %184, %172
  br label %186

186:                                              ; preds = %185, %162
  br label %187

187:                                              ; preds = %186, %152
  br label %188

188:                                              ; preds = %187, %142
  br label %189

189:                                              ; preds = %188, %132
  br label %190

190:                                              ; preds = %189, %122
  br label %191

191:                                              ; preds = %190, %112
  br label %192

192:                                              ; preds = %191, %103
  br label %193

193:                                              ; preds = %192, %81
  br label %194

194:                                              ; preds = %193, %41
  %195 = load i32, ptr %3, align 4
  %196 = add nsw i32 %195, -1
  store i32 %196, ptr %3, align 4
  br label %14, !llvm.loop !13

197:                                              ; preds = %14
  call void @llvm.lifetime.end.p0(i64 4, ptr %3) #8
  ret void
}