; Function Attrs: nounwind uwtable
define dso_local void @sort_step_list(ptr noundef %0) local_unnamed_addr #0 {
  %2 = tail call i64 @time(ptr noundef null) #11
  store i64 %2, ptr @now, align 8
  %3 = load ptr, ptr getelementptr inbounds nuw (i8, ptr @params, i64 160), align 8
  %4 = icmp eq ptr %3, null
  br i1 %4, label %5, label %7

5:                                                ; preds = %1
  %6 = tail call ptr @xstrdup(ptr noundef nonnull @.str.4) #11
  store ptr %6, ptr getelementptr inbounds nuw (i8, ptr @params, i64 160), align 8
  br label %7

7:                                                ; preds = %5, %1
  %8 = phi ptr [ %6, %5 ], [ %3, %1 ]
  %9 = tail call i64 @strlen(ptr noundef nonnull dereferenceable(1) %8) #12
  %10 = trunc i64 %9 to i32
  %.032 = add i32 %10, -1
  %11 = icmp sgt i32 %.032, -1
  br i1 %11, label %.lr.ph, label %._crit_edge

.lr.ph:                                           ; preds = %7, %55
  %.034 = phi i32 [ %.0, %55 ], [ %.032, %7 ]
  %.0.in33 = phi i32 [ %.1, %55 ], [ %10, %7 ]
  store i1 false, ptr @reverse_order, align 1
  %12 = load ptr, ptr getelementptr inbounds nuw (i8, ptr @params, i64 160), align 8
  %13 = zext nneg i32 %.034 to i64
  %14 = getelementptr inbounds nuw i8, ptr %12, i64 %13
  %15 = load i8, ptr %14, align 1
  %.off = add i8 %15, -43
  %switch = icmp ult i8 %.off, 3
  br i1 %switch, label %55, label %16

16:                                               ; preds = %.lr.ph
  %.not = icmp eq i32 %.034, 0
  br i1 %.not, label %.thread, label %17

17:                                               ; preds = %16
  %18 = add i32 %.0.in33, -2
  %19 = zext nneg i32 %18 to i64
  %20 = getelementptr inbounds nuw i8, ptr %12, i64 %19
  %21 = load i8, ptr %20, align 1
  %22 = icmp eq i8 %21, 45
  br i1 %22, label %23, label %24

23:                                               ; preds = %17
  store i1 true, ptr @reverse_order, align 1
  br label %24

24:                                               ; preds = %23, %17
  %25 = icmp sgt i32 %.0.in33, 6
  br i1 %25, label %26, label %.thread

26:                                               ; preds = %24
  %27 = zext nneg i32 %.0.in33 to i64
  %28 = getelementptr i8, ptr %12, i64 %27
  %29 = getelementptr i8, ptr %28, i64 -7
  %30 = tail call i32 @xstrncasecmp(ptr noundef %29, ptr noundef nonnull @.str.1, i64 noundef 7) #11
  %.not31 = icmp eq i32 %30, 0
  br i1 %.not31, label %31, label %..thread_crit_edge

..thread_crit_edge:                               ; preds = %26
  %.pre = load ptr, ptr getelementptr inbounds nuw (i8, ptr @params, i64 160), align 8
  %.phi.trans.insert = getelementptr inbounds nuw i8, ptr %.pre, i64 %13
  %.pre35 = load i8, ptr %.phi.trans.insert, align 1
  br label %.thread

31:                                               ; preds = %26
  %32 = icmp samesign ugt i32 %.034, 6
  br i1 %32, label %33, label %40

33:                                               ; preds = %31
  %34 = load ptr, ptr getelementptr inbounds nuw (i8, ptr @params, i64 160), align 8
  %35 = getelementptr i8, ptr %34, i64 %27
  %36 = getelementptr i8, ptr %35, i64 -8
  %37 = load i8, ptr %36, align 1
  %38 = icmp eq i8 %37, 45
  br i1 %38, label %39, label %40

39:                                               ; preds = %33
  store i1 true, ptr @reverse_order, align 1
  br label %40

40:                                               ; preds = %39, %33, %31
  tail call void @list_sort(ptr noundef %0, ptr noundef nonnull @_sort_step_by_cluster_name) #11
  %41 = add nsw i32 %.0.in33, -7
  br label %55

.thread:                                          ; preds = %..thread_crit_edge, %16, %24
  %42 = phi i8 [ %.pre35, %..thread_crit_edge ], [ %15, %16 ], [ %15, %24 ]
  switch i8 %42, label %55 [
    i8 98, label %43
    i8 105, label %47
    i8 78, label %48
    i8 80, label %49
    i8 108, label %50
    i8 83, label %51
    i8 77, label %52
    i8 117, label %53
    i8 85, label %54
  ]

43:                                               ; preds = %.thread
  %44 = tail call i32 @get_log_level() #11
  %45 = icmp sgt i32 %44, 2
  br i1 %45, label %46, label %55

46:                                               ; preds = %43
  tail call void (i32, ptr, ...) @log_var(i32 noundef 3, ptr noundef nonnull @.str.2) #11
  br label %55

47:                                               ; preds = %.thread
  tail call void @list_sort(ptr noundef %0, ptr noundef nonnull @_sort_step_by_id) #11
  br label %55

48:                                               ; preds = %.thread
  tail call void @list_sort(ptr noundef %0, ptr noundef nonnull @_sort_step_by_node_list) #11
  br label %55

49:                                               ; preds = %.thread
  tail call void @list_sort(ptr noundef %0, ptr noundef nonnull @_sort_step_by_partition) #11
  br label %55

50:                                               ; preds = %.thread
  tail call void @list_sort(ptr noundef %0, ptr noundef nonnull @_sort_step_by_time_limit) #11
  br label %55

51:                                               ; preds = %.thread
  tail call void @list_sort(ptr noundef %0, ptr noundef nonnull @_sort_step_by_time_start) #11
  br label %55

52:                                               ; preds = %.thread
  tail call void @list_sort(ptr noundef %0, ptr noundef nonnull @_sort_step_by_time_used) #11
  br label %55

53:                                               ; preds = %.thread
  tail call void @list_sort(ptr noundef %0, ptr noundef nonnull @_sort_step_by_user_name) #11
  br label %55

54:                                               ; preds = %.thread
  tail call void @list_sort(ptr noundef %0, ptr noundef nonnull @_sort_step_by_user_id) #11
  br label %55

55:                                               ; preds = %.lr.ph, %.thread, %40, %47, %49, %51, %53, %54, %52, %50, %48, %43, %46
  %.1 = phi i32 [ %.034, %46 ], [ %.034, %43 ], [ %.034, %47 ], [ %.034, %48 ], [ %.034, %49 ], [ %.034, %50 ], [ %.034, %51 ], [ %.034, %52 ], [ %.034, %53 ], [ %.034, %54 ], [ %41, %40 ], [ %.034, %.lr.ph ], [ %.034, %.thread ]
  %.0 = add i32 %.1, -1
  %56 = icmp sgt i32 %.0, -1
  br i1 %56, label %.lr.ph, label %._crit_edge, !llvm.loop !11

._crit_edge:                                      ; preds = %55, %7
  ret void
}